; Function Attrs: mustprogress uwtable
define hidden noundef zeroext i1 @_ZN3sls7bv_eval14try_repair_addERKNS_5bvectERNS_12bv_valuationERKS4_(ptr noundef nonnull align 8 dereferenceable(865) %0, ptr noundef nonnull align 8 dereferenceable(20) %1, ptr noundef nonnull align 8 dereferenceable(184) %2, ptr noundef nonnull align 8 dereferenceable(184) %3) local_unnamed_addr #3 align 2 {
  %5 = getelementptr inbounds nuw i8, ptr %0, i64 504
  %6 = load i32, ptr %5, align 8, !tbaa !91
  %7 = mul i32 %6, 214013
  %8 = add i32 %7, 2531011
  store i32 %8, ptr %5, align 8, !tbaa !91
  %9 = lshr i32 %8, 16
  %10 = trunc nuw i32 %9 to i16
  %.lhs.trunc = and i16 %10, 32767
  %11 = urem i16 %.lhs.trunc, 20
  %.not = icmp eq i16 %11, 0
  br i1 %.not, label %_ZN3sls12bv_valuation7try_setERKNS_5bvectE.exit, label %12

12:                                               ; preds = %4
  %13 = getelementptr inbounds nuw i8, ptr %0, i64 552
  %14 = getelementptr inbounds nuw i8, ptr %2, i64 152
  %15 = load i32, ptr %14, align 8, !tbaa !128
  tail call void @_ZN3sls5bvect6set_bwEj(ptr noundef nonnull align 8 dereferenceable(20) %13, i32 noundef %15)
  tail call void @_ZNK3sls12bv_valuation7set_subERNS_5bvectERKS1_S4_(ptr noundef nonnull align 8 dereferenceable(184) %2, ptr noundef nonnull align 8 dereferenceable(20) %13, ptr noundef nonnull align 8 dereferenceable(20) %1, ptr noundef nonnull align 8 dereferenceable(20) %3)
  %16 = tail call noundef zeroext i1 @_ZNK3sls12bv_valuation7can_setERKNS_5bvectE(ptr noundef nonnull align 8 dereferenceable(184) %2, ptr noundef nonnull align 8 dereferenceable(20) %13)
  br i1 %16, label %17, label %_ZN3sls12bv_valuation7try_setERKNS_5bvectE.exit

17:                                               ; preds = %12
  %18 = getelementptr inbounds nuw i8, ptr %2, i64 156
  %19 = load i32, ptr %18, align 4, !tbaa !131
  %.not4.i.i = icmp eq i32 %19, 0
  br i1 %.not4.i.i, label %.._crit_edge_crit_edge.i.i, label %.lr.ph.i.i

.._crit_edge_crit_edge.i.i:                       ; preds = %17
  %.phi.trans.insert.i.i = getelementptr inbounds nuw i8, ptr %2, i64 160
  %.pre7.i.i = load ptr, ptr %.phi.trans.insert.i.i, align 8, !tbaa !97
  br label %_ZN3sls12bv_valuation7try_setERKNS_5bvectE.exit.thread

.lr.ph.i.i:                                       ; preds = %17
  %20 = load ptr, ptr %13, align 8, !tbaa !97
  %21 = getelementptr inbounds nuw i8, ptr %2, i64 160
  %22 = load ptr, ptr %21, align 8, !tbaa !97
  %23 = zext i32 %19 to i64
  br label %26

._crit_edge.loopexit.i.i:                         ; preds = %26
  %.pre.i.i = load i32, ptr %18, align 4, !tbaa !131
  %24 = add i32 %.pre.i.i, -1
  %25 = zext i32 %24 to i64
  br label %_ZN3sls12bv_valuation7try_setERKNS_5bvectE.exit.thread

26:                                               ; preds = %26, %.lr.ph.i.i
  %indvars.iv.i.i = phi i64 [ %23, %.lr.ph.i.i ], [ %27, %26 ]
  %27 = add nsw i64 %indvars.iv.i.i, -1
  %28 = getelementptr inbounds nuw i32, ptr %20, i64 %27
  %29 = load i32, ptr %28, align 4, !tbaa !102
  %30 = getelementptr inbounds nuw i32, ptr %22, i64 %27
  store i32 %29, ptr %30, align 4, !tbaa !102
  %.not.wide.i.i = icmp eq i64 %27, 0
  br i1 %.not.wide.i.i, label %._crit_edge.loopexit.i.i, label %26, !llvm.loop !175

_ZN3sls12bv_valuation7try_setERKNS_5bvectE.exit.thread: ; preds = %.._crit_edge_crit_edge.i.i, %._crit_edge.loopexit.i.i
  %31 = phi ptr [ %22, %._crit_edge.loopexit.i.i ], [ %.pre7.i.i, %.._crit_edge_crit_edge.i.i ]
  %32 = phi i64 [ %25, %._crit_edge.loopexit.i.i ], [ 4294967295, %.._crit_edge_crit_edge.i.i ]
  %33 = getelementptr inbounds nuw i8, ptr %2, i64 148
  %34 = load i32, ptr %33, align 4, !tbaa !157
  %35 = getelementptr inbounds nuw i32, ptr %31, i64 %32
  %36 = load i32, ptr %35, align 4, !tbaa !102
  %37 = and i32 %36, %34
  store i32 %37, ptr %35, align 4, !tbaa !102
  br label %39

_ZN3sls12bv_valuation7try_setERKNS_5bvectE.exit:  ; preds = %12, %4
  %38 = tail call noundef zeroext i1 @_ZN3sls12bv_valuation10set_randomER10random_gen(ptr noundef nonnull align 8 dereferenceable(184) %2, ptr noundef nonnull align 4 dereferenceable(4) %5)
  br label %39

39:                                               ; preds = %_ZN3sls12bv_valuation7try_setERKNS_5bvectE.exit.thread, %_ZN3sls12bv_valuation7try_setERKNS_5bvectE.exit
  %.0 = phi i1 [ %38, %_ZN3sls12bv_valuation7try_setERKNS_5bvectE.exit ], [ true, %_ZN3sls12bv_valuation7try_setERKNS_5bvectE.exit.thread ]
  ret i1 %.0
}